target datalayout = "e-m:e-p270:32:32-p271:32:32-p272:64:64-i64:64-i128:128-f80:128-n8:16:32:64-S128"
target triple = "x86_64-pc-linux-gnu"

%struct.Nwk_Obj_t_ = type { ptr, ptr, ptr, %union.anon, i32, i32, i32, i32, float, float, float, i32, i32, i32, ptr }
%union.anon = type { ptr }

; Function Attrs: nounwind uwtable
define void @Nwk_ManMarkTfoCone_rec(ptr noundef %0) #0 {
  %2 = alloca ptr, align 8
  %3 = alloca ptr, align 8
  %4 = alloca i32, align 4
  %5 = alloca i32, align 4
  store ptr %0, ptr %2, align 8, !tbaa !3
  call void @llvm.lifetime.start.p0(i64 8, ptr %3) #9
  call void @llvm.lifetime.start.p0(i64 4, ptr %4) #9
  %6 = load ptr, ptr %2, align 8, !tbaa !3
  %7 = getelementptr inbounds nuw %struct.Nwk_Obj_t_, ptr %6, i32 0, i32 4
  %8 = load i32, ptr %7, align 8
  %9 = lshr i32 %8, 4
  %10 = and i32 %9, 1
  %11 = icmp ne i32 %10, 0
  br i1 %11, label %12, label %13

12:                                               ; preds = %1
  store i32 1, ptr %5, align 4
  br label %46

13:                                               ; preds = %1
  %14 = load ptr, ptr %2, align 8, !tbaa !3
  %15 = getelementptr inbounds nuw %struct.Nwk_Obj_t_, ptr %14, i32 0, i32 4
  %16 = load i32, ptr %15, align 8
  %17 = and i32 %16, -17
  %18 = or i32 %17, 16
  store i32 %18, ptr %15, align 8
  store i32 0, ptr %4, align 4, !tbaa !8
  br label %19

19:                                               ; preds = %42, %13
  %20 = load i32, ptr %4, align 4, !tbaa !8
  %21 = load ptr, ptr %2, align 8, !tbaa !3
  %22 = getelementptr inbounds nuw %struct.Nwk_Obj_t_, ptr %21, i32 0, i32 12
  %23 = load i32, ptr %22, align 8, !tbaa !19
  %24 = icmp slt i32 %20, %23
  br i1 %24, label %25, label %38

25:                                               ; preds = %19
  %26 = load ptr, ptr %2, align 8, !tbaa !3
  %27 = getelementptr inbounds nuw %struct.Nwk_Obj_t_, ptr %26, i32 0, i32 14
  %28 = load ptr, ptr %27, align 8, !tbaa !16
  %29 = load ptr, ptr %2, align 8, !tbaa !3
  %30 = getelementptr inbounds nuw %struct.Nwk_Obj_t_, ptr %29, i32 0, i32 11
  %31 = load i32, ptr %30, align 4, !tbaa !10
  %32 = load i32, ptr %4, align 4, !tbaa !8
  %33 = add nsw i32 %31, %32
  %34 = sext i32 %33 to i64
  %35 = getelementptr inbounds ptr, ptr %28, i64 %34
  %36 = load ptr, ptr %35, align 8, !tbaa !3
  store ptr %36, ptr %3, align 8, !tbaa !3
  %37 = icmp ne ptr %36, null
  br label %38

38:                                               ; preds = %25, %19
  %39 = phi i1 [ false, %19 ], [ %37, %25 ]
  br i1 %39, label %40, label %45

40:                                               ; preds = %38
  %41 = load ptr, ptr %3, align 8, !tbaa !3
  call void @Nwk_ManMarkTfoCone_rec(ptr noundef %41)
  br label %42

42:                                               ; preds = %40
  %43 = load i32, ptr %4, align 4, !tbaa !8
  %44 = add nsw i32 %43, 1
  store i32 %44, ptr %4, align 4, !tbaa !8
  br label %19, !llvm.loop !20

45:                                               ; preds = %38
  store i32 0, ptr %5, align 4
  br label %46

46:                                               ; preds = %45, %12
  call void @llvm.lifetime.end.p0(i64 4, ptr %4) #9
  call void @llvm.lifetime.end.p0(i64 8, ptr %3) #9
  %47 = load i32, ptr %5, align 4
  switch i32 %47, label %49 [
    i32 0, label %48
    i32 1, label %48
  ]

48:                                               ; preds = %46, %46
  ret void

49:                                               ; preds = %46
  unreachable
}