; Function Attrs: nofree nosync nounwind memory(readwrite, inaccessiblemem: none) uwtable
define void @Nwk_ManMarkTfoCone_rec(ptr noundef captures(none) %0) local_unnamed_addr #0 {
  %2 = getelementptr inbounds nuw i8, ptr %0, i64 32
  %3 = load i32, ptr %2, align 8
  %4 = and i32 %3, 16
  %.not = icmp eq i32 %4, 0
  br i1 %.not, label %5, label %.critedge

5:                                                ; preds = %1
  %6 = or disjoint i32 %3, 16
  store i32 %6, ptr %2, align 8
  %7 = getelementptr inbounds nuw i8, ptr %0, i64 72
  %8 = getelementptr inbounds nuw i8, ptr %0, i64 64
  %9 = load i32, ptr %8, align 8, !tbaa !18
  %10 = icmp sgt i32 %9, 0
  br i1 %10, label %.lr.ph, label %.critedge

.lr.ph:                                           ; preds = %5
  %11 = getelementptr inbounds nuw i8, ptr %0, i64 60
  br label %12

12:                                               ; preds = %.lr.ph, %19
  %.010 = phi i32 [ 0, %.lr.ph ], [ %20, %19 ]
  %13 = load ptr, ptr %7, align 8, !tbaa !13
  %14 = load i32, ptr %11, align 4, !tbaa !3
  %15 = add nsw i32 %14, %.010
  %16 = sext i32 %15 to i64
  %17 = getelementptr inbounds ptr, ptr %13, i64 %16
  %18 = load ptr, ptr %17, align 8, !tbaa !14
  %.not9 = icmp eq ptr %18, null
  br i1 %.not9, label %.critedge, label %19

19:                                               ; preds = %12
  tail call void @Nwk_ManMarkTfoCone_rec(ptr noundef nonnull %18)
  %20 = add nuw nsw i32 %.010, 1
  %21 = load i32, ptr %8, align 8, !tbaa !18
  %22 = icmp slt i32 %20, %21
  br i1 %22, label %12, label %.critedge, !llvm.loop !19

.critedge:                                        ; preds = %19, %12, %5, %1
  ret void
}